target datalayout = "e-m:e-p270:32:32-p271:32:32-p272:64:64-i64:64-i128:128-f80:128-n8:16:32:64-S128"
target triple = "x86_64-pc-linux-gnu"

%"class.duckdb_re2::Regexp" = type { i8, i8, i16, i16, i16, %union.anon, ptr, %union.anon.0 }
%union.anon = type { ptr }
%union.anon.0 = type { %struct.anon.1 }
%struct.anon.1 = type { i32, ptr }
%struct.anon.2 = type { i32, ptr }

@_ZN10duckdb_re26RegexpC1ENS_8RegexpOpENS0_10ParseFlagsE = hidden unnamed_addr alias void (ptr, i32, i32), ptr @_ZN10duckdb_re26RegexpC2ENS_8RegexpOpENS0_10ParseFlagsE

; Function Attrs: mustprogress uwtable
define hidden void @_ZN10duckdb_re26Regexp15AddRuneToStringEi(ptr noundef nonnull align 8 dereferenceable(40) %0, i32 noundef %1) #4 align 2 {
  %3 = alloca ptr, align 8
  %4 = alloca i32, align 4
  %5 = alloca ptr, align 8
  %6 = alloca i32, align 4
  store ptr %0, ptr %3, align 8, !tbaa !3
  store i32 %1, ptr %4, align 4, !tbaa !29
  %7 = load ptr, ptr %3, align 8
  %8 = getelementptr inbounds nuw %"class.duckdb_re2::Regexp", ptr %7, i32 0, i32 7
  %9 = getelementptr inbounds nuw %struct.anon.2, ptr %8, i32 0, i32 0
  %10 = load i32, ptr %9, align 8, !tbaa !20
  %11 = icmp eq i32 %10, 0
  br i1 %11, label %12, label %16

12:                                               ; preds = %2
  %13 = call noalias noundef nonnull ptr @_Znam(i64 noundef 32) #22
  %14 = getelementptr inbounds nuw %"class.duckdb_re2::Regexp", ptr %7, i32 0, i32 7
  %15 = getelementptr inbounds nuw %struct.anon.2, ptr %14, i32 0, i32 1
  store ptr %13, ptr %15, align 8, !tbaa !20
  br label %75

16:                                               ; preds = %2
  %17 = getelementptr inbounds nuw %"class.duckdb_re2::Regexp", ptr %7, i32 0, i32 7
  %18 = getelementptr inbounds nuw %struct.anon.2, ptr %17, i32 0, i32 0
  %19 = load i32, ptr %18, align 8, !tbaa !20
  %20 = icmp sge i32 %19, 8
  br i1 %20, label %21, label %74

21:                                               ; preds = %16
  %22 = getelementptr inbounds nuw %"class.duckdb_re2::Regexp", ptr %7, i32 0, i32 7
  %23 = getelementptr inbounds nuw %struct.anon.2, ptr %22, i32 0, i32 0
  %24 = load i32, ptr %23, align 8, !tbaa !20
  %25 = getelementptr inbounds nuw %"class.duckdb_re2::Regexp", ptr %7, i32 0, i32 7
  %26 = getelementptr inbounds nuw %struct.anon.2, ptr %25, i32 0, i32 0
  %27 = load i32, ptr %26, align 8, !tbaa !20
  %28 = sub nsw i32 %27, 1
  %29 = and i32 %24, %28
  %30 = icmp eq i32 %29, 0
  br i1 %30, label %31, label %74

31:                                               ; preds = %21
  call void @llvm.lifetime.start.p0(i64 8, ptr %5) #18
  %32 = getelementptr inbounds nuw %"class.duckdb_re2::Regexp", ptr %7, i32 0, i32 7
  %33 = getelementptr inbounds nuw %struct.anon.2, ptr %32, i32 0, i32 1
  %34 = load ptr, ptr %33, align 8, !tbaa !20
  store ptr %34, ptr %5, align 8, !tbaa !74
  %35 = getelementptr inbounds nuw %"class.duckdb_re2::Regexp", ptr %7, i32 0, i32 7
  %36 = getelementptr inbounds nuw %struct.anon.2, ptr %35, i32 0, i32 0
  %37 = load i32, ptr %36, align 8, !tbaa !20
  %38 = mul nsw i32 %37, 2
  %39 = sext i32 %38 to i64
  %40 = call { i64, i1 } @llvm.umul.with.overflow.i64(i64 %39, i64 4)
  %41 = extractvalue { i64, i1 } %40, 1
  %42 = extractvalue { i64, i1 } %40, 0
  %43 = select i1 %41, i64 -1, i64 %42
  %44 = call noalias noundef nonnull ptr @_Znam(i64 noundef %43) #22
  %45 = getelementptr inbounds nuw %"class.duckdb_re2::Regexp", ptr %7, i32 0, i32 7
  %46 = getelementptr inbounds nuw %struct.anon.2, ptr %45, i32 0, i32 1
  store ptr %44, ptr %46, align 8, !tbaa !20
  call void @llvm.lifetime.start.p0(i64 4, ptr %6) #18
  store i32 0, ptr %6, align 4, !tbaa !29
  br label %47

47:                                               ; preds = %66, %31
  %48 = load i32, ptr %6, align 4, !tbaa !29
  %49 = getelementptr inbounds nuw %"class.duckdb_re2::Regexp", ptr %7, i32 0, i32 7
  %50 = getelementptr inbounds nuw %struct.anon.2, ptr %49, i32 0, i32 0
  %51 = load i32, ptr %50, align 8, !tbaa !20
  %52 = icmp slt i32 %48, %51
  br i1 %52, label %54, label %53

53:                                               ; preds = %47
  call void @llvm.lifetime.end.p0(i64 4, ptr %6) #18
  br label %69

54:                                               ; preds = %47
  %55 = load ptr, ptr %5, align 8, !tbaa !74
  %56 = load i32, ptr %6, align 4, !tbaa !29
  %57 = sext i32 %56 to i64
  %58 = getelementptr inbounds i32, ptr %55, i64 %57
  %59 = load i32, ptr %58, align 4, !tbaa !29
  %60 = getelementptr inbounds nuw %"class.duckdb_re2::Regexp", ptr %7, i32 0, i32 7
  %61 = getelementptr inbounds nuw %struct.anon.2, ptr %60, i32 0, i32 1
  %62 = load ptr, ptr %61, align 8, !tbaa !20
  %63 = load i32, ptr %6, align 4, !tbaa !29
  %64 = sext i32 %63 to i64
  %65 = getelementptr inbounds i32, ptr %62, i64 %64
  store i32 %59, ptr %65, align 4, !tbaa !29
  br label %66

66:                                               ; preds = %54
  %67 = load i32, ptr %6, align 4, !tbaa !29
  %68 = add nsw i32 %67, 1
  store i32 %68, ptr %6, align 4, !tbaa !29
  br label %47, !llvm.loop !76

69:                                               ; preds = %53
  %70 = load ptr, ptr %5, align 8, !tbaa !74
  %71 = icmp eq ptr %70, null
  br i1 %71, label %73, label %72

72:                                               ; preds = %69
  call void @_ZdaPv(ptr noundef %70) #19
  br label %73

73:                                               ; preds = %72, %69
  call void @llvm.lifetime.end.p0(i64 8, ptr %5) #18
  br label %74

74:                                               ; preds = %73, %21, %16
  br label %75

75:                                               ; preds = %74, %12
  %76 = load i32, ptr %4, align 4, !tbaa !29
  %77 = getelementptr inbounds nuw %"class.duckdb_re2::Regexp", ptr %7, i32 0, i32 7
  %78 = getelementptr inbounds nuw %struct.anon.2, ptr %77, i32 0, i32 1
  %79 = load ptr, ptr %78, align 8, !tbaa !20
  %80 = getelementptr inbounds nuw %"class.duckdb_re2::Regexp", ptr %7, i32 0, i32 7
  %81 = getelementptr inbounds nuw %struct.anon.2, ptr %80, i32 0, i32 0
  %82 = load i32, ptr %81, align 8, !tbaa !20
  %83 = add nsw i32 %82, 1
  store i32 %83, ptr %81, align 8, !tbaa !20
  %84 = sext i32 %82 to i64
  %85 = getelementptr inbounds i32, ptr %79, i64 %84
  store i32 %76, ptr %85, align 4, !tbaa !29
  ret void
}

; Function Attrs: mustprogress uwtable
define hidden noundef ptr @_ZN10duckdb_re26Regexp10NewLiteralEiNS0_10ParseFlagsE(i32 noundef %0, i32 noundef %1) #4 align 2 personality ptr @__gxx_personality_v0 {
  %3 = alloca i32, align 4
  %4 = alloca i32, align 4
  %5 = alloca ptr, align 8
  %6 = alloca ptr, align 8
  %7 = alloca i32, align 4
  store i32 %0, ptr %3, align 4, !tbaa !29
  store i32 %1, ptr %4, align 4, !tbaa !10
  call void @llvm.lifetime.start.p0(i64 8, ptr %5) #18
  %8 = call noalias noundef nonnull ptr @_Znwm(i64 noundef 40) #22
  %9 = load i32, ptr %4, align 4, !tbaa !10
  invoke void @_ZN10duckdb_re26RegexpC1ENS_8RegexpOpENS0_10ParseFlagsE(ptr noundef nonnull align 8 dereferenceable(40) %8, i32 noundef 3, i32 noundef %9)
          to label %10 unwind label %15

10:                                               ; preds = %2
  store ptr %8, ptr %5, align 8, !tbaa !3
  %11 = load i32, ptr %3, align 4, !tbaa !29
  %12 = load ptr, ptr %5, align 8, !tbaa !3
  %13 = getelementptr inbounds nuw %"class.duckdb_re2::Regexp", ptr %12, i32 0, i32 7
  store i32 %11, ptr %13, align 8, !tbaa !20
  %14 = load ptr, ptr %5, align 8, !tbaa !3
  call void @llvm.lifetime.end.p0(i64 8, ptr %5) #18
  ret ptr %14

15:                                               ; preds = %2
  %16 = landingpad { ptr, i32 }
          cleanup
  %17 = extractvalue { ptr, i32 } %16, 0
  store ptr %17, ptr %6, align 8
  %18 = extractvalue { ptr, i32 } %16, 1
  store i32 %18, ptr %7, align 4
  call void @_ZdlPv(ptr noundef %8) #19
  call void @llvm.lifetime.end.p0(i64 8, ptr %5) #18
  br label %19

19:                                               ; preds = %15
  %20 = load ptr, ptr %6, align 8
  %21 = load i32, ptr %7, align 4
  %22 = insertvalue { ptr, i32 } poison, ptr %20, 0
  %23 = insertvalue { ptr, i32 } %22, i32 %21, 1
  resume { ptr, i32 } %23
}

; Function Attrs: mustprogress uwtable
define hidden noundef ptr @_ZN10duckdb_re26Regexp13LiteralStringEPiiNS0_10ParseFlagsE(ptr noundef %0, i32 noundef %1, i32 noundef %2) #4 align 2 personality ptr @__gxx_personality_v0 {
  %4 = alloca ptr, align 8
  %5 = alloca ptr, align 8
  %6 = alloca i32, align 4
  %7 = alloca i32, align 4
  %8 = alloca ptr, align 8
  %9 = alloca i32, align 4
  %10 = alloca ptr, align 8
  %11 = alloca i32, align 4
  store ptr %0, ptr %5, align 8, !tbaa !74
  store i32 %1, ptr %6, align 4, !tbaa !29
  store i32 %2, ptr %7, align 4, !tbaa !10
  %12 = load i32, ptr %6, align 4, !tbaa !29
  %13 = icmp sle i32 %12, 0
  br i1 %13, label %14, label %22

14:                                               ; preds = %3
  %15 = call noalias noundef nonnull ptr @_Znwm(i64 noundef 40) #22
  %16 = load i32, ptr %7, align 4, !tbaa !10
  invoke void @_ZN10duckdb_re26RegexpC1ENS_8RegexpOpENS0_10ParseFlagsE(ptr noundef nonnull align 8 dereferenceable(40) %15, i32 noundef 2, i32 noundef %16)
          to label %17 unwind label %18

17:                                               ; preds = %14
  store ptr %15, ptr %4, align 8
  br label %56

18:                                               ; preds = %14
  %19 = landingpad { ptr, i32 }
          cleanup
  %20 = extractvalue { ptr, i32 } %19, 0
  store ptr %20, ptr %8, align 8
  %21 = extractvalue { ptr, i32 } %19, 1
  store i32 %21, ptr %9, align 4
  call void @_ZdlPv(ptr noundef %15) #19
  br label %58

22:                                               ; preds = %3
  %23 = load i32, ptr %6, align 4, !tbaa !29
  %24 = icmp eq i32 %23, 1
  br i1 %24, label %25, label %31

25:                                               ; preds = %22
  %26 = load ptr, ptr %5, align 8, !tbaa !74
  %27 = getelementptr inbounds i32, ptr %26, i64 0
  %28 = load i32, ptr %27, align 4, !tbaa !29
  %29 = load i32, ptr %7, align 4, !tbaa !10
  %30 = call noundef ptr @_ZN10duckdb_re26Regexp10NewLiteralEiNS0_10ParseFlagsE(i32 noundef %28, i32 noundef %29)
  store ptr %30, ptr %4, align 8
  br label %56

31:                                               ; preds = %22
  call void @llvm.lifetime.start.p0(i64 8, ptr %10) #18
  %32 = call noalias noundef nonnull ptr @_Znwm(i64 noundef 40) #22
  %33 = load i32, ptr %7, align 4, !tbaa !10
  invoke void @_ZN10duckdb_re26RegexpC1ENS_8RegexpOpENS0_10ParseFlagsE(ptr noundef nonnull align 8 dereferenceable(40) %32, i32 noundef 4, i32 noundef %33)
          to label %34 unwind label %40

34:                                               ; preds = %31
  store ptr %32, ptr %10, align 8, !tbaa !3
  call void @llvm.lifetime.start.p0(i64 4, ptr %11) #18
  store i32 0, ptr %11, align 4, !tbaa !29
  br label %35

35:                                               ; preds = %51, %34
  %36 = load i32, ptr %11, align 4, !tbaa !29
  %37 = load i32, ptr %6, align 4, !tbaa !29
  %38 = icmp slt i32 %36, %37
  br i1 %38, label %44, label %39

39:                                               ; preds = %35
  call void @llvm.lifetime.end.p0(i64 4, ptr %11) #18
  br label %54

40:                                               ; preds = %31
  %41 = landingpad { ptr, i32 }
          cleanup
  %42 = extractvalue { ptr, i32 } %41, 0
  store ptr %42, ptr %8, align 8
  %43 = extractvalue { ptr, i32 } %41, 1
  store i32 %43, ptr %9, align 4
  call void @_ZdlPv(ptr noundef %32) #19
  call void @llvm.lifetime.end.p0(i64 8, ptr %10) #18
  br label %58

44:                                               ; preds = %35
  %45 = load ptr, ptr %10, align 8, !tbaa !3
  %46 = load ptr, ptr %5, align 8, !tbaa !74
  %47 = load i32, ptr %11, align 4, !tbaa !29
  %48 = sext i32 %47 to i64
  %49 = getelementptr inbounds i32, ptr %46, i64 %48
  %50 = load i32, ptr %49, align 4, !tbaa !29
  call void @_ZN10duckdb_re26Regexp15AddRuneToStringEi(ptr noundef nonnull align 8 dereferenceable(40) %45, i32 noundef %50)
  br label %51

51:                                               ; preds = %44
  %52 = load i32, ptr %11, align 4, !tbaa !29
  %53 = add nsw i32 %52, 1
  store i32 %53, ptr %11, align 4, !tbaa !29
  br label %35, !llvm.loop !82

54:                                               ; preds = %39
  %55 = load ptr, ptr %10, align 8, !tbaa !3
  store ptr %55, ptr %4, align 8
  call void @llvm.lifetime.end.p0(i64 8, ptr %10) #18
  br label %56

56:                                               ; preds = %54, %25, %17
  %57 = load ptr, ptr %4, align 8
  ret ptr %57

58:                                               ; preds = %40, %18
  %59 = load ptr, ptr %8, align 8
  %60 = load i32, ptr %9, align 4
  %61 = insertvalue { ptr, i32 } poison, ptr %59, 0
  %62 = insertvalue { ptr, i32 } %61, i32 %60, 1
  resume { ptr, i32 } %62
}