; Function Attrs: mustprogress uwtable
define hidden noalias noundef nonnull ptr @_ZN10duckdb_re26Regexp13LiteralStringEPiiNS0_10ParseFlagsE(ptr noundef readonly captures(none) %0, i32 noundef %1, i32 noundef %2) local_unnamed_addr #7 align 2 personality ptr @__gxx_personality_v0 {
  %4 = icmp slt i32 %1, 1
  br i1 %4, label %5, label %12

5:                                                ; preds = %3
  %6 = tail call noalias noundef nonnull dereferenceable(40) ptr @_Znwm(i64 noundef 40) #31
  store i8 2, ptr %6, align 8, !tbaa !3
  %7 = getelementptr inbounds nuw i8, ptr %6, i64 1
  store i8 0, ptr %7, align 1, !tbaa !10
  %8 = getelementptr inbounds nuw i8, ptr %6, i64 2
  %9 = trunc i32 %2 to i16
  store i16 %9, ptr %8, align 2, !tbaa !11
  %10 = getelementptr inbounds nuw i8, ptr %6, i64 4
  store i16 1, ptr %10, align 4, !tbaa !12
  %11 = getelementptr inbounds nuw i8, ptr %6, i64 6
  tail call void @llvm.memset.p0.i64(ptr noundef nonnull align 2 dereferenceable(34) %11, i8 0, i64 34, i1 false)
  br label %.loopexit

12:                                               ; preds = %3
  %13 = icmp eq i32 %1, 1
  br i1 %13, label %14, label %.lr.ph

14:                                               ; preds = %12
  %15 = load i32, ptr %0, align 4, !tbaa !42
  %16 = tail call noalias noundef nonnull dereferenceable(40) ptr @_Znwm(i64 noundef 40) #31
  store i8 3, ptr %16, align 8, !tbaa !3
  %17 = getelementptr inbounds nuw i8, ptr %16, i64 1
  store i8 0, ptr %17, align 1, !tbaa !10
  %18 = getelementptr inbounds nuw i8, ptr %16, i64 2
  %19 = trunc i32 %2 to i16
  store i16 %19, ptr %18, align 2, !tbaa !11
  %20 = getelementptr inbounds nuw i8, ptr %16, i64 4
  store i16 1, ptr %20, align 4, !tbaa !12
  %21 = getelementptr inbounds nuw i8, ptr %16, i64 6
  tail call void @llvm.memset.p0.i64(ptr noundef nonnull align 2 dereferenceable(34) %21, i8 0, i64 34, i1 false)
  %22 = getelementptr inbounds nuw i8, ptr %16, i64 24
  store i32 %15, ptr %22, align 8, !tbaa !32
  br label %.loopexit

.lr.ph:                                           ; preds = %12
  %23 = tail call noalias noundef nonnull dereferenceable(40) ptr @_Znwm(i64 noundef 40) #31
  store i8 4, ptr %23, align 8, !tbaa !3
  %24 = getelementptr inbounds nuw i8, ptr %23, i64 1
  store i8 0, ptr %24, align 1, !tbaa !10
  %25 = getelementptr inbounds nuw i8, ptr %23, i64 2
  %26 = trunc i32 %2 to i16
  store i16 %26, ptr %25, align 2, !tbaa !11
  %27 = getelementptr inbounds nuw i8, ptr %23, i64 4
  store i16 1, ptr %27, align 4, !tbaa !12
  %28 = getelementptr inbounds nuw i8, ptr %23, i64 6
  tail call void @llvm.memset.p0.i64(ptr noundef nonnull align 2 dereferenceable(34) %28, i8 0, i64 34, i1 false)
  %29 = getelementptr inbounds nuw i8, ptr %23, i64 24
  %30 = getelementptr inbounds nuw i8, ptr %23, i64 32
  %wide.trip.count = zext nneg i32 %1 to i64
  br label %31

31:                                               ; preds = %.lr.ph, %_ZN10duckdb_re26Regexp15AddRuneToStringEi.exit
  %32 = phi ptr [ null, %.lr.ph ], [ %51, %_ZN10duckdb_re26Regexp15AddRuneToStringEi.exit ]
  %indvars.iv = phi i64 [ 0, %.lr.ph ], [ %indvars.iv.next, %_ZN10duckdb_re26Regexp15AddRuneToStringEi.exit ]
  %33 = phi i32 [ 0, %.lr.ph ], [ %52, %_ZN10duckdb_re26Regexp15AddRuneToStringEi.exit ]
  %34 = getelementptr inbounds nuw i32, ptr %0, i64 %indvars.iv
  %35 = load i32, ptr %34, align 4, !tbaa !42
  %36 = icmp eq i32 %33, 0
  br i1 %36, label %37, label %39

37:                                               ; preds = %31
  %38 = tail call noalias noundef nonnull dereferenceable(32) ptr @_Znam(i64 noundef 32) #31
  store ptr %38, ptr %30, align 8, !tbaa !32
  br label %_ZN10duckdb_re26Regexp15AddRuneToStringEi.exit

39:                                               ; preds = %31
  %40 = icmp samesign ugt i32 %33, 7
  %41 = tail call range(i32 1, 32) i32 @llvm.ctpop.i32(i32 %33)
  %42 = icmp samesign ult i32 %41, 2
  %or.cond.i = select i1 %40, i1 %42, i1 false
  br i1 %or.cond.i, label %.lr.ph.preheader.i, label %_ZN10duckdb_re26Regexp15AddRuneToStringEi.exit

.lr.ph.preheader.i:                               ; preds = %39
  %43 = shl nuw nsw i32 %33, 1
  %44 = zext nneg i32 %43 to i64
  %45 = shl nuw nsw i64 %44, 2
  %46 = tail call noalias noundef nonnull ptr @_Znam(i64 noundef %45) #31
  store ptr %46, ptr %30, align 8, !tbaa !32
  %47 = zext nneg i32 %33 to i64
  br label %.lr.ph.i

.lr.ph.i:                                         ; preds = %.lr.ph.i, %.lr.ph.preheader.i
  %indvars.iv.i = phi i64 [ 0, %.lr.ph.preheader.i ], [ %indvars.iv.next.i, %.lr.ph.i ]
  %48 = getelementptr inbounds nuw i32, ptr %32, i64 %indvars.iv.i
  %49 = load i32, ptr %48, align 4, !tbaa !42
  %50 = getelementptr inbounds nuw i32, ptr %46, i64 %indvars.iv.i
  store i32 %49, ptr %50, align 4, !tbaa !42
  %indvars.iv.next.i = add nuw nsw i64 %indvars.iv.i, 1
  %exitcond.not = icmp eq i64 %indvars.iv.next.i, %47
  br i1 %exitcond.not, label %._crit_edge.i, label %.lr.ph.i, !llvm.loop !55

._crit_edge.i:                                    ; preds = %.lr.ph.i
  tail call void @_ZdaPv(ptr noundef nonnull %32) #28
  br label %_ZN10duckdb_re26Regexp15AddRuneToStringEi.exit

_ZN10duckdb_re26Regexp15AddRuneToStringEi.exit:   ; preds = %37, %39, %._crit_edge.i
  %51 = phi ptr [ %46, %._crit_edge.i ], [ %32, %39 ], [ %38, %37 ]
  %52 = add nuw nsw i32 %33, 1
  %53 = zext nneg i32 %33 to i64
  %54 = getelementptr inbounds nuw i32, ptr %51, i64 %53
  store i32 %35, ptr %54, align 4, !tbaa !42
  %indvars.iv.next = add nuw nsw i64 %indvars.iv, 1
  %exitcond21.not = icmp eq i64 %indvars.iv.next, %wide.trip.count
  br i1 %exitcond21.not, label %..loopexit_crit_edge, label %31, !llvm.loop !59

..loopexit_crit_edge:                             ; preds = %_ZN10duckdb_re26Regexp15AddRuneToStringEi.exit
  store i32 %52, ptr %29, align 8
  br label %.loopexit

.loopexit:                                        ; preds = %..loopexit_crit_edge, %14, %5
  %.015 = phi ptr [ %6, %5 ], [ %16, %14 ], [ %23, %..loopexit_crit_edge ]
  ret ptr %.015
}